target datalayout = "e-m:e-p270:32:32-p271:32:32-p272:64:64-i64:64-i128:128-f80:128-n8:16:32:64-S128"
target triple = "x86_64-pc-linux-gnu"

%struct.ForEachState = type { ptr, i32 }
%struct.PlannerInfo = type { i32, ptr, ptr, i32, ptr, ptr, ptr, ptr, i32, ptr, ptr, ptr, ptr, ptr, ptr, ptr, ptr, i32, ptr, ptr, ptr, ptr, ptr, i8, ptr, ptr, ptr, ptr, ptr, i32, ptr, ptr, ptr, ptr, ptr, ptr, ptr, i32, ptr, ptr, ptr, i32, ptr, ptr, ptr, ptr, ptr, ptr, [8 x ptr], [8 x ptr], ptr, ptr, ptr, ptr, ptr, ptr, ptr, double, double, double, i32, i8, i8, i8, i8, i8, i8, i8, i32, ptr, ptr, i32, i8, i8, i32, ptr, ptr, ptr, ptr, ptr, ptr, i8, ptr }
%struct.List = type { i32, i32, i32, ptr, [0 x %union.ListCell] }
%union.ListCell = type { ptr }
%struct.RelOptInfo = type { i32, i32, ptr, double, i8, i8, i8, ptr, ptr, ptr, ptr, ptr, ptr, ptr, ptr, ptr, ptr, i32, i32, i32, i16, i16, ptr, ptr, ptr, ptr, ptr, ptr, ptr, ptr, i32, double, double, ptr, ptr, ptr, i32, i32, i32, i32, i8, ptr, ptr, ptr, ptr, ptr, %struct.QualCost, i32, ptr, i8, i8, ptr, ptr, ptr, ptr, i32, ptr, i8, ptr, ptr, ptr, ptr, ptr, ptr }
%struct.QualCost = type { double, double }

; Function Attrs: nounwind uwtable
define internal zeroext i1 @has_legal_joinclause(ptr noundef %0, ptr noundef %1) #0 {
  %3 = alloca i1, align 1
  %4 = alloca ptr, align 8
  %5 = alloca ptr, align 8
  %6 = alloca ptr, align 8
  %7 = alloca %struct.ForEachState, align 8
  %8 = alloca i32, align 4
  %9 = alloca ptr, align 8
  %10 = alloca ptr, align 8
  %11 = alloca ptr, align 8
  %12 = alloca i8, align 1
  store ptr %0, ptr %4, align 8
  store ptr %1, ptr %5, align 8
  call void @llvm.lifetime.start.p0(i64 8, ptr %6) #7
  call void @llvm.lifetime.start.p0(i64 16, ptr %7) #7
  %13 = getelementptr inbounds nuw %struct.ForEachState, ptr %7, i32 0, i32 0
  %14 = load ptr, ptr %4, align 8
  %15 = getelementptr inbounds nuw %struct.PlannerInfo, ptr %14, i32 0, i32 47
  %16 = load ptr, ptr %15, align 8
  store ptr %16, ptr %13, align 8
  %17 = getelementptr inbounds nuw %struct.ForEachState, ptr %7, i32 0, i32 1
  store i32 0, ptr %17, align 8
  %18 = getelementptr i8, ptr %7, i64 12
  call void @llvm.memset.p0.i64(ptr align 4 %18, i8 0, i64 4, i1 false)
  br label %19

19:                                               ; preds = %85, %2
  %20 = getelementptr inbounds nuw %struct.ForEachState, ptr %7, i32 0, i32 0
  %21 = load ptr, ptr %20, align 8
  %22 = icmp ne ptr %21, null
  br i1 %22, label %23, label %40

23:                                               ; preds = %19
  %24 = getelementptr inbounds nuw %struct.ForEachState, ptr %7, i32 0, i32 1
  %25 = load i32, ptr %24, align 8
  %26 = getelementptr inbounds nuw %struct.ForEachState, ptr %7, i32 0, i32 0
  %27 = load ptr, ptr %26, align 8
  %28 = getelementptr inbounds nuw %struct.List, ptr %27, i32 0, i32 1
  %29 = load i32, ptr %28, align 4
  %30 = icmp slt i32 %25, %29
  br i1 %30, label %31, label %40

31:                                               ; preds = %23
  %32 = getelementptr inbounds nuw %struct.ForEachState, ptr %7, i32 0, i32 0
  %33 = load ptr, ptr %32, align 8
  %34 = getelementptr inbounds nuw %struct.List, ptr %33, i32 0, i32 3
  %35 = load ptr, ptr %34, align 8
  %36 = getelementptr inbounds nuw %struct.ForEachState, ptr %7, i32 0, i32 1
  %37 = load i32, ptr %36, align 8
  %38 = sext i32 %37 to i64
  %39 = getelementptr inbounds %union.ListCell, ptr %35, i64 %38
  store ptr %39, ptr %6, align 8
  br label %41

40:                                               ; preds = %23, %19
  store ptr null, ptr %6, align 8
  br label %41

41:                                               ; preds = %40, %31
  %42 = phi i32 [ 1, %31 ], [ 0, %40 ]
  %43 = icmp ne i32 %42, 0
  br i1 %43, label %45, label %44

44:                                               ; preds = %41
  store i32 2, ptr %8, align 4
  br label %89

45:                                               ; preds = %41
  call void @llvm.lifetime.start.p0(i64 8, ptr %9) #7
  %46 = load ptr, ptr %6, align 8
  %47 = load ptr, ptr %46, align 8
  store ptr %47, ptr %9, align 8
  %48 = load ptr, ptr %5, align 8
  %49 = getelementptr inbounds nuw %struct.RelOptInfo, ptr %48, i32 0, i32 2
  %50 = load ptr, ptr %49, align 8
  %51 = load ptr, ptr %9, align 8
  %52 = getelementptr inbounds nuw %struct.RelOptInfo, ptr %51, i32 0, i32 2
  %53 = load ptr, ptr %52, align 8
  %54 = call zeroext i1 @bms_overlap(ptr noundef %50, ptr noundef %53)
  br i1 %54, label %55, label %56

55:                                               ; preds = %45
  store i32 4, ptr %8, align 4
  br label %82

56:                                               ; preds = %45
  %57 = load ptr, ptr %4, align 8
  %58 = load ptr, ptr %5, align 8
  %59 = load ptr, ptr %9, align 8
  %60 = call zeroext i1 @have_relevant_joinclause(ptr noundef %57, ptr noundef %58, ptr noundef %59)
  br i1 %60, label %61, label %81

61:                                               ; preds = %56
  call void @llvm.lifetime.start.p0(i64 8, ptr %10) #7
  call void @llvm.lifetime.start.p0(i64 8, ptr %11) #7
  call void @llvm.lifetime.start.p0(i64 1, ptr %12) #7
  %62 = load ptr, ptr %5, align 8
  %63 = getelementptr inbounds nuw %struct.RelOptInfo, ptr %62, i32 0, i32 2
  %64 = load ptr, ptr %63, align 8
  %65 = load ptr, ptr %9, align 8
  %66 = getelementptr inbounds nuw %struct.RelOptInfo, ptr %65, i32 0, i32 2
  %67 = load ptr, ptr %66, align 8
  %68 = call ptr @bms_union(ptr noundef %64, ptr noundef %67)
  store ptr %68, ptr %10, align 8
  %69 = load ptr, ptr %4, align 8
  %70 = load ptr, ptr %5, align 8
  %71 = load ptr, ptr %9, align 8
  %72 = load ptr, ptr %10, align 8
  %73 = call zeroext i1 @join_is_legal(ptr noundef %69, ptr noundef %70, ptr noundef %71, ptr noundef %72, ptr noundef %11, ptr noundef %12)
  br i1 %73, label %74, label %76

74:                                               ; preds = %61
  %75 = load ptr, ptr %10, align 8
  call void @bms_free(ptr noundef %75)
  store i1 true, ptr %3, align 1
  store i32 1, ptr %8, align 4
  br label %78

76:                                               ; preds = %61
  %77 = load ptr, ptr %10, align 8
  call void @bms_free(ptr noundef %77)
  store i32 0, ptr %8, align 4
  br label %78

78:                                               ; preds = %76, %74
  call void @llvm.lifetime.end.p0(i64 1, ptr %12) #7
  call void @llvm.lifetime.end.p0(i64 8, ptr %11) #7
  call void @llvm.lifetime.end.p0(i64 8, ptr %10) #7
  %79 = load i32, ptr %8, align 4
  switch i32 %79, label %82 [
    i32 0, label %80
  ]

80:                                               ; preds = %78
  br label %81

81:                                               ; preds = %80, %56
  store i32 0, ptr %8, align 4
  br label %82

82:                                               ; preds = %81, %78, %55
  call void @llvm.lifetime.end.p0(i64 8, ptr %9) #7
  %83 = load i32, ptr %8, align 4
  switch i32 %83, label %89 [
    i32 0, label %84
    i32 4, label %85
  ]

84:                                               ; preds = %82
  br label %85

85:                                               ; preds = %84, %82
  %86 = getelementptr inbounds nuw %struct.ForEachState, ptr %7, i32 0, i32 1
  %87 = load i32, ptr %86, align 8
  %88 = add i32 %87, 1
  store i32 %88, ptr %86, align 8
  br label %19, !llvm.loop !21

89:                                               ; preds = %82, %44
  call void @llvm.lifetime.end.p0(i64 16, ptr %7) #7
  %90 = load i32, ptr %8, align 4
  switch i32 %90, label %92 [
    i32 2, label %91
  ]

91:                                               ; preds = %89
  store i1 false, ptr %3, align 1
  store i32 1, ptr %8, align 4
  br label %92

92:                                               ; preds = %91, %89
  call void @llvm.lifetime.end.p0(i64 8, ptr %6) #7
  %93 = load i1, ptr %3, align 1
  ret i1 %93
}