; Function Attrs: nounwind uwtable
define internal fastcc noundef zeroext i1 @has_legal_joinclause(ptr noundef %0, ptr noundef %1) unnamed_addr #0 {
  %3 = alloca ptr, align 8
  %4 = alloca i8, align 1
  %5 = getelementptr inbounds nuw i8, ptr %0, i64 376
  %6 = load ptr, ptr %5, align 8
  %7 = getelementptr inbounds nuw i8, ptr %6, i64 4
  %.not = icmp eq ptr %6, null
  br i1 %.not, label %.critedge, label %.lr.ph

.lr.ph:                                           ; preds = %2
  %8 = getelementptr inbounds nuw i8, ptr %6, i64 16
  %9 = getelementptr inbounds nuw i8, ptr %1, i64 8
  %10 = load i32, ptr %7, align 4
  %11 = icmp sgt i32 %10, 0
  br i1 %11, label %.lr.ph43, label %.critedge

.lr.ph43:                                         ; preds = %.lr.ph, %26
  %indvars.iv = phi i64 [ %indvars.iv.next, %26 ], [ 0, %.lr.ph ]
  %12 = load ptr, ptr %8, align 8
  %13 = getelementptr inbounds nuw %union.ListCell, ptr %12, i64 %indvars.iv
  %14 = load ptr, ptr %13, align 8
  %15 = load ptr, ptr %9, align 8
  %16 = getelementptr inbounds nuw i8, ptr %14, i64 8
  %17 = load ptr, ptr %16, align 8
  %18 = tail call zeroext i1 @bms_overlap(ptr noundef %15, ptr noundef %17) #9
  br i1 %18, label %26, label %19

19:                                               ; preds = %.lr.ph43
  %20 = tail call zeroext i1 @have_relevant_joinclause(ptr noundef %0, ptr noundef nonnull %1, ptr noundef nonnull %14) #9
  br i1 %20, label %21, label %26

21:                                               ; preds = %19
  call void @llvm.lifetime.start.p0(i64 8, ptr nonnull %3) #9
  call void @llvm.lifetime.start.p0(i64 1, ptr nonnull %4) #9
  %22 = load ptr, ptr %9, align 8
  %23 = load ptr, ptr %16, align 8
  %24 = tail call ptr @bms_union(ptr noundef %22, ptr noundef %23) #9
  %25 = call fastcc zeroext i1 @join_is_legal(ptr noundef %0, ptr noundef nonnull %1, ptr noundef nonnull %14, ptr noundef %24, ptr noundef %3, ptr noundef %4)
  tail call void @bms_free(ptr noundef %24) #9
  call void @llvm.lifetime.end.p0(i64 1, ptr nonnull %4) #9
  call void @llvm.lifetime.end.p0(i64 8, ptr nonnull %3) #9
  br i1 %25, label %.critedge, label %26

26:                                               ; preds = %19, %21, %.lr.ph43
  %indvars.iv.next = add nuw nsw i64 %indvars.iv, 1
  %27 = load i32, ptr %7, align 4
  %28 = sext i32 %27 to i64
  %29 = icmp slt i64 %indvars.iv.next, %28
  br i1 %29, label %.lr.ph43, label %.critedge

.critedge:                                        ; preds = %21, %26, %.lr.ph, %2
  %.5 = phi i1 [ false, %2 ], [ false, %.lr.ph ], [ false, %26 ], [ true, %21 ]
  ret i1 %.5
}